; Function Attrs: mustprogress nofree norecurse nosync nounwind willreturn memory(readwrite, argmem: write, inaccessiblemem: none) uwtable
define dso_local void @_ZN5ImGui19SetColorEditOptionsEi(i32 noundef %0) local_unnamed_addr #30 {
  %2 = load ptr, ptr @GImGui, align 8, !tbaa !4
  %3 = and i32 %0, 7340032
  %4 = icmp eq i32 %3, 0
  %5 = or disjoint i32 %0, 1048576
  %spec.select = select i1 %4, i32 %5, i32 %0
  %6 = and i32 %spec.select, 25165824
  %7 = icmp eq i32 %6, 0
  %8 = or disjoint i32 %spec.select, 8388608
  %.1 = select i1 %7, i32 %8, i32 %spec.select
  %9 = and i32 %.1, 100663296
  %10 = icmp eq i32 %9, 0
  %11 = or disjoint i32 %.1, 33554432
  %.2 = select i1 %10, i32 %11, i32 %.1
  %12 = and i32 %.2, 402653184
  %13 = icmp eq i32 %12, 0
  %14 = or disjoint i32 %.2, 134217728
  %.3 = select i1 %13, i32 %14, i32 %.2
  %15 = getelementptr inbounds nuw i8, ptr %2, i64 9212
  store i32 %.3, ptr %15, align 4, !tbaa !510
  ret void
}